target datalayout = "e-m:e-p270:32:32-p271:32:32-p272:64:64-i64:64-i128:128-f80:128-n8:16:32:64-S128"
target triple = "x86_64-pc-linux-gnu"

%struct.drmp3dec = type { [2 x [288 x float]], [960 x float], i32, i32, [4 x i8], [511 x i8] }
%struct.drmp3_allocation_callbacks = type { ptr, ptr, ptr, ptr }
%struct.drmp3 = type { %struct.drmp3dec, i32, i32, ptr, ptr, ptr, %struct.drmp3_allocation_callbacks, i32, i32, i32, i32, [9216 x i8], i64, i64, ptr, i32, i64, i64, i64, ptr, i8, %struct.anon.61 }
%struct.anon.61 = type { ptr, i64, i64 }

; Function Attrs: nounwind uwtable
define internal void @drmp3__free_from_callbacks(ptr noundef %0, ptr noundef %1) #0 {
  %3 = alloca ptr, align 8
  %4 = alloca ptr, align 8
  store ptr %0, ptr %3, align 8
  store ptr %1, ptr %4, align 8
  %5 = load ptr, ptr %3, align 8
  %6 = icmp eq ptr %5, null
  br i1 %6, label %10, label %7

7:                                                ; preds = %2
  %8 = load ptr, ptr %4, align 8
  %9 = icmp eq ptr %8, null
  br i1 %9, label %10, label %11

10:                                               ; preds = %7, %2
  br label %24

11:                                               ; preds = %7
  %12 = load ptr, ptr %4, align 8
  %13 = getelementptr inbounds nuw %struct.drmp3_allocation_callbacks, ptr %12, i32 0, i32 3
  %14 = load ptr, ptr %13, align 8
  %15 = icmp ne ptr %14, null
  br i1 %15, label %16, label %24

16:                                               ; preds = %11
  %17 = load ptr, ptr %4, align 8
  %18 = getelementptr inbounds nuw %struct.drmp3_allocation_callbacks, ptr %17, i32 0, i32 3
  %19 = load ptr, ptr %18, align 8
  %20 = load ptr, ptr %3, align 8
  %21 = load ptr, ptr %4, align 8
  %22 = getelementptr inbounds nuw %struct.drmp3_allocation_callbacks, ptr %21, i32 0, i32 0
  %23 = load ptr, ptr %22, align 8
  call void %19(ptr noundef %20, ptr noundef %23)
  br label %24

24:                                               ; preds = %10, %16, %11
  ret void
}

; Function Attrs: nounwind uwtable
define internal i32 @drmp3_decode_next_frame(ptr noundef %0) #0 {
  %2 = alloca ptr, align 8
  store ptr %0, ptr %2, align 8
  %3 = load ptr, ptr %2, align 8
  %4 = load ptr, ptr %2, align 8
  %5 = getelementptr inbounds nuw %struct.drmp3, ptr %4, i32 0, i32 11
  %6 = getelementptr inbounds [9216 x i8], ptr %5, i64 0, i64 0
  %7 = call i32 @drmp3_decode_next_frame_ex(ptr noundef %3, ptr noundef %6)
  ret i32 %7
}

; Function Attrs: nounwind uwtable
define internal void @drmp3_copy_allocation_callbacks_or_defaults(ptr dead_on_unwind noalias writable sret(%struct.drmp3_allocation_callbacks) align 8 %0, ptr noundef %1) #0 {
  %3 = alloca ptr, align 8
  store ptr %1, ptr %3, align 8
  %4 = load ptr, ptr %3, align 8
  %5 = icmp ne ptr %4, null
  br i1 %5, label %6, label %8

6:                                                ; preds = %2
  %7 = load ptr, ptr %3, align 8
  call void @llvm.memcpy.p0.p0.i64(ptr align 8 %0, ptr align 8 %7, i64 32, i1 false)
  br label %13

8:                                                ; preds = %2
  %9 = getelementptr inbounds nuw %struct.drmp3_allocation_callbacks, ptr %0, i32 0, i32 0
  store ptr null, ptr %9, align 8
  %10 = getelementptr inbounds nuw %struct.drmp3_allocation_callbacks, ptr %0, i32 0, i32 1
  store ptr @drmp3__malloc_default, ptr %10, align 8
  %11 = getelementptr inbounds nuw %struct.drmp3_allocation_callbacks, ptr %0, i32 0, i32 2
  store ptr @drmp3__realloc_default, ptr %11, align 8
  %12 = getelementptr inbounds nuw %struct.drmp3_allocation_callbacks, ptr %0, i32 0, i32 3
  store ptr @drmp3__free_default, ptr %12, align 8
  br label %13

13:                                               ; preds = %8, %6
  ret void
}

; Function Attrs: nounwind uwtable
define hidden void @drmp3dec_init(ptr noundef %0) #0 {
  %2 = alloca ptr, align 8
  store ptr %0, ptr %2, align 8
  %3 = load ptr, ptr %2, align 8
  %4 = getelementptr inbounds nuw %struct.drmp3dec, ptr %3, i32 0, i32 4
  %5 = getelementptr inbounds [4 x i8], ptr %4, i64 0, i64 0
  store i8 0, ptr %5, align 4
  ret void
}

; Function Attrs: nounwind uwtable
define internal i32 @drmp3_init_internal(ptr noundef %0, ptr noundef %1, ptr noundef %2, ptr noundef %3, ptr noundef %4) #0 {
  %6 = alloca i32, align 4
  %7 = alloca ptr, align 8
  %8 = alloca ptr, align 8
  %9 = alloca ptr, align 8
  %10 = alloca ptr, align 8
  %11 = alloca ptr, align 8
  %12 = alloca %struct.drmp3_allocation_callbacks, align 8
  store ptr %0, ptr %7, align 8
  store ptr %1, ptr %8, align 8
  store ptr %2, ptr %9, align 8
  store ptr %3, ptr %10, align 8
  store ptr %4, ptr %11, align 8
  %13 = load ptr, ptr %7, align 8
  %14 = getelementptr inbounds nuw %struct.drmp3, ptr %13, i32 0, i32 0
  call void @drmp3dec_init(ptr noundef %14)
  %15 = load ptr, ptr %8, align 8
  %16 = load ptr, ptr %7, align 8
  %17 = getelementptr inbounds nuw %struct.drmp3, ptr %16, i32 0, i32 3
  store ptr %15, ptr %17, align 8
  %18 = load ptr, ptr %9, align 8
  %19 = load ptr, ptr %7, align 8
  %20 = getelementptr inbounds nuw %struct.drmp3, ptr %19, i32 0, i32 4
  store ptr %18, ptr %20, align 8
  %21 = load ptr, ptr %10, align 8
  %22 = load ptr, ptr %7, align 8
  %23 = getelementptr inbounds nuw %struct.drmp3, ptr %22, i32 0, i32 5
  store ptr %21, ptr %23, align 8
  %24 = load ptr, ptr %7, align 8
  %25 = getelementptr inbounds nuw %struct.drmp3, ptr %24, i32 0, i32 6
  call void @llvm.lifetime.start.p0(i64 32, ptr %12) #21
  %26 = load ptr, ptr %11, align 8
  call void @drmp3_copy_allocation_callbacks_or_defaults(ptr dead_on_unwind writable sret(%struct.drmp3_allocation_callbacks) align 8 %12, ptr noundef %26)
  call void @llvm.memcpy.p0.p0.i64(ptr align 8 %25, ptr align 8 %12, i64 32, i1 false)
  call void @llvm.lifetime.end.p0(i64 32, ptr %12) #21
  %27 = load ptr, ptr %7, align 8
  %28 = getelementptr inbounds nuw %struct.drmp3, ptr %27, i32 0, i32 6
  %29 = getelementptr inbounds nuw %struct.drmp3_allocation_callbacks, ptr %28, i32 0, i32 3
  %30 = load ptr, ptr %29, align 8
  %31 = icmp eq ptr %30, null
  br i1 %31, label %44, label %32

32:                                               ; preds = %5
  %33 = load ptr, ptr %7, align 8
  %34 = getelementptr inbounds nuw %struct.drmp3, ptr %33, i32 0, i32 6
  %35 = getelementptr inbounds nuw %struct.drmp3_allocation_callbacks, ptr %34, i32 0, i32 1
  %36 = load ptr, ptr %35, align 8
  %37 = icmp eq ptr %36, null
  br i1 %37, label %38, label %45

38:                                               ; preds = %32
  %39 = load ptr, ptr %7, align 8
  %40 = getelementptr inbounds nuw %struct.drmp3, ptr %39, i32 0, i32 6
  %41 = getelementptr inbounds nuw %struct.drmp3_allocation_callbacks, ptr %40, i32 0, i32 2
  %42 = load ptr, ptr %41, align 8
  %43 = icmp eq ptr %42, null
  br i1 %43, label %44, label %45

44:                                               ; preds = %38, %5
  store i32 0, ptr %6, align 4
  br label %66

45:                                               ; preds = %38, %32
  %46 = load ptr, ptr %7, align 8
  %47 = call i32 @drmp3_decode_next_frame(ptr noundef %46)
  %48 = icmp eq i32 %47, 0
  br i1 %48, label %49, label %55

49:                                               ; preds = %45
  %50 = load ptr, ptr %7, align 8
  %51 = getelementptr inbounds nuw %struct.drmp3, ptr %50, i32 0, i32 19
  %52 = load ptr, ptr %51, align 8
  %53 = load ptr, ptr %7, align 8
  %54 = getelementptr inbounds nuw %struct.drmp3, ptr %53, i32 0, i32 6
  call void @drmp3__free_from_callbacks(ptr noundef %52, ptr noundef %54)
  store i32 0, ptr %6, align 4
  br label %66

55:                                               ; preds = %45
  %56 = load ptr, ptr %7, align 8
  %57 = getelementptr inbounds nuw %struct.drmp3, ptr %56, i32 0, i32 7
  %58 = load i32, ptr %57, align 8
  %59 = load ptr, ptr %7, align 8
  %60 = getelementptr inbounds nuw %struct.drmp3, ptr %59, i32 0, i32 1
  store i32 %58, ptr %60, align 4
  %61 = load ptr, ptr %7, align 8
  %62 = getelementptr inbounds nuw %struct.drmp3, ptr %61, i32 0, i32 8
  %63 = load i32, ptr %62, align 4
  %64 = load ptr, ptr %7, align 8
  %65 = getelementptr inbounds nuw %struct.drmp3, ptr %64, i32 0, i32 2
  store i32 %63, ptr %65, align 8
  store i32 1, ptr %6, align 4
  br label %66

66:                                               ; preds = %55, %49, %44
  %67 = load i32, ptr %6, align 4
  ret i32 %67
}

; Function Attrs: nounwind uwtable
define hidden i32 @drmp3_init(ptr noundef %0, ptr noundef %1, ptr noundef %2, ptr noundef %3, ptr noundef %4) #0 {
  %6 = alloca i32, align 4
  %7 = alloca ptr, align 8
  %8 = alloca ptr, align 8
  %9 = alloca ptr, align 8
  %10 = alloca ptr, align 8
  %11 = alloca ptr, align 8
  store ptr %0, ptr %7, align 8
  store ptr %1, ptr %8, align 8
  store ptr %2, ptr %9, align 8
  store ptr %3, ptr %10, align 8
  store ptr %4, ptr %11, align 8
  %12 = load ptr, ptr %7, align 8
  %13 = icmp eq ptr %12, null
  br i1 %13, label %17, label %14

14:                                               ; preds = %5
  %15 = load ptr, ptr %8, align 8
  %16 = icmp eq ptr %15, null
  br i1 %16, label %17, label %18

17:                                               ; preds = %14, %5
  store i32 0, ptr %6, align 4
  br label %26

18:                                               ; preds = %14
  %19 = load ptr, ptr %7, align 8
  call void @llvm.memset.p0.i64(ptr align 8 %19, i8 0, i64 16064, i1 false)
  %20 = load ptr, ptr %7, align 8
  %21 = load ptr, ptr %8, align 8
  %22 = load ptr, ptr %9, align 8
  %23 = load ptr, ptr %10, align 8
  %24 = load ptr, ptr %11, align 8
  %25 = call i32 @drmp3_init_internal(ptr noundef %20, ptr noundef %21, ptr noundef %22, ptr noundef %23, ptr noundef %24)
  store i32 %25, ptr %6, align 4
  br label %26

26:                                               ; preds = %18, %17
  %27 = load i32, ptr %6, align 4
  ret i32 %27
}