; Function Attrs: nounwind uwtable
define hidden range(i32 0, 2) i32 @drmp3_init(ptr noundef %0, ptr noundef %1, ptr noundef %2, ptr noundef %3, ptr noundef readonly captures(address_is_null) %4) local_unnamed_addr #7 {
  %6 = icmp eq ptr %0, null
  %7 = icmp eq ptr %1, null
  %or.cond = or i1 %6, %7
  br i1 %or.cond, label %drmp3_init_internal.exit, label %8

8:                                                ; preds = %5
  %9 = getelementptr inbounds nuw i8, ptr %0, i64 6680
  tail call void @llvm.memset.p0.i64(ptr noundef nonnull align 8 dereferenceable(16064) %0, i8 0, i64 16064, i1 false)
  store ptr %1, ptr %9, align 8
  %10 = getelementptr inbounds nuw i8, ptr %0, i64 6688
  store ptr %2, ptr %10, align 8
  %11 = getelementptr inbounds nuw i8, ptr %0, i64 6696
  store ptr %3, ptr %11, align 8
  %12 = getelementptr inbounds nuw i8, ptr %0, i64 6704
  %.not.i.i = icmp eq ptr %4, null
  br i1 %.not.i.i, label %.thread.i, label %drmp3_copy_allocation_callbacks_or_defaults.exit.i

.thread.i:                                        ; preds = %8
  %.sroa.5.0..sroa_idx29.i = getelementptr inbounds nuw i8, ptr %0, i64 6712
  store ptr @drmp3__malloc_default, ptr %.sroa.5.0..sroa_idx29.i, align 8
  %.sroa.6.0..sroa_idx30.i = getelementptr inbounds nuw i8, ptr %0, i64 6720
  store ptr @drmp3__realloc_default, ptr %.sroa.6.0..sroa_idx30.i, align 8
  %.sroa.7.0..sroa_idx31.i = getelementptr inbounds nuw i8, ptr %0, i64 6728
  store ptr @drmp3__free_default, ptr %.sroa.7.0..sroa_idx31.i, align 8
  br label %17

drmp3_copy_allocation_callbacks_or_defaults.exit.i: ; preds = %8
  %.sroa.0.0.copyload20.i = load ptr, ptr %4, align 8
  %.sroa.5.0..sroa_idx21.i = getelementptr inbounds nuw i8, ptr %4, i64 8
  %.sroa.5.0.copyload22.i = load ptr, ptr %.sroa.5.0..sroa_idx21.i, align 8
  %.sroa.6.0..sroa_idx23.i = getelementptr inbounds nuw i8, ptr %4, i64 16
  %.sroa.6.0.copyload24.i = load ptr, ptr %.sroa.6.0..sroa_idx23.i, align 8
  %.sroa.7.0..sroa_idx25.i = getelementptr inbounds nuw i8, ptr %4, i64 24
  %.sroa.7.0.copyload26.i = load ptr, ptr %.sroa.7.0..sroa_idx25.i, align 8
  store ptr %.sroa.0.0.copyload20.i, ptr %12, align 8
  %.sroa.5.0..sroa_idx.i = getelementptr inbounds nuw i8, ptr %0, i64 6712
  store ptr %.sroa.5.0.copyload22.i, ptr %.sroa.5.0..sroa_idx.i, align 8
  %.sroa.6.0..sroa_idx.i = getelementptr inbounds nuw i8, ptr %0, i64 6720
  store ptr %.sroa.6.0.copyload24.i, ptr %.sroa.6.0..sroa_idx.i, align 8
  %.sroa.7.0..sroa_idx.i = getelementptr inbounds nuw i8, ptr %0, i64 6728
  store ptr %.sroa.7.0.copyload26.i, ptr %.sroa.7.0..sroa_idx.i, align 8
  %13 = icmp eq ptr %.sroa.7.0.copyload26.i, null
  br i1 %13, label %drmp3_init_internal.exit, label %14

14:                                               ; preds = %drmp3_copy_allocation_callbacks_or_defaults.exit.i
  %15 = icmp eq ptr %.sroa.5.0.copyload22.i, null
  %16 = icmp eq ptr %.sroa.6.0.copyload24.i, null
  %or.cond.i = select i1 %15, i1 %16, i1 false
  br i1 %or.cond.i, label %drmp3_init_internal.exit, label %17

17:                                               ; preds = %14, %.thread.i
  %.sroa.7.0..sroa_idx3234.i = phi ptr [ %.sroa.7.0..sroa_idx31.i, %.thread.i ], [ %.sroa.7.0..sroa_idx.i, %14 ]
  %18 = getelementptr inbounds nuw i8, ptr %0, i64 6752
  %19 = tail call fastcc range(i32 0, 1153) i32 @drmp3_decode_next_frame_ex(ptr noundef nonnull %0, ptr noundef nonnull %18)
  %20 = icmp eq i32 %19, 0
  br i1 %20, label %21, label %29

21:                                               ; preds = %17
  %22 = getelementptr inbounds nuw i8, ptr %0, i64 16024
  %23 = load ptr, ptr %22, align 8
  %24 = icmp eq ptr %23, null
  br i1 %24, label %drmp3_init_internal.exit, label %25

25:                                               ; preds = %21
  %26 = load ptr, ptr %.sroa.7.0..sroa_idx3234.i, align 8
  %.not.i19.i = icmp eq ptr %26, null
  br i1 %.not.i19.i, label %drmp3_init_internal.exit, label %27

27:                                               ; preds = %25
  %28 = load ptr, ptr %12, align 8
  tail call void %26(ptr noundef nonnull %23, ptr noundef %28) #72
  br label %drmp3_init_internal.exit

29:                                               ; preds = %17
  %30 = getelementptr inbounds nuw i8, ptr %0, i64 6736
  %31 = load i32, ptr %30, align 8
  %32 = getelementptr inbounds nuw i8, ptr %0, i64 6668
  store i32 %31, ptr %32, align 4
  %33 = getelementptr inbounds nuw i8, ptr %0, i64 6740
  %34 = load i32, ptr %33, align 4
  %35 = getelementptr inbounds nuw i8, ptr %0, i64 6672
  store i32 %34, ptr %35, align 8
  br label %drmp3_init_internal.exit

drmp3_init_internal.exit:                         ; preds = %29, %27, %25, %21, %14, %drmp3_copy_allocation_callbacks_or_defaults.exit.i, %5
  %.0 = phi i32 [ 0, %5 ], [ 1, %29 ], [ 0, %drmp3_copy_allocation_callbacks_or_defaults.exit.i ], [ 0, %21 ], [ 0, %25 ], [ 0, %27 ], [ 0, %14 ]
  ret i32 %.0
}